; Function Attrs: mustprogress uwtable
define void @_ZN14DecodeAsDialog27on_deleteToolButton_clickedEv(ptr nocapture noundef nonnull readonly align 8 dereferenceable(88) %0) local_unnamed_addr #0 align 2 personality ptr @__gxx_personality_v0 {
  %2 = alloca %class.QModelIndex, align 8
  %3 = alloca %class.QModelIndex, align 8
  %4 = alloca %class.QDebug, align 8
  %5 = alloca %class.QMessageLogger, align 8
  %6 = getelementptr inbounds i8, ptr %0, i64 64
  %7 = load ptr, ptr %6, align 8
  %8 = getelementptr inbounds i8, ptr %7, i64 8
  %9 = load ptr, ptr %8, align 8
  call void @_ZNK17QAbstractItemView12currentIndexEv(ptr dead_on_unwind nonnull writable sret(%class.QModelIndex) align 8 %2, ptr noundef nonnull align 8 dereferenceable(40) %9)
  %10 = getelementptr inbounds i8, ptr %0, i64 72
  %11 = load ptr, ptr %10, align 8
  %.not = icmp eq ptr %11, null
  br i1 %.not, label %_ZNK11QModelIndex7isValidEv.exit.thread, label %12

12:                                               ; preds = %1
  %13 = load i32, ptr %2, align 8
  %14 = icmp sgt i32 %13, -1
  %15 = getelementptr inbounds i8, ptr %2, i64 4
  %16 = load i32, ptr %15, align 4
  %17 = icmp sgt i32 %16, -1
  %or.cond.i = select i1 %14, i1 %17, i1 false
  %18 = getelementptr inbounds i8, ptr %2, i64 16
  %19 = load ptr, ptr %18, align 8
  %20 = icmp ne ptr %19, null
  %or.cond = select i1 %or.cond.i, i1 %20, i1 false
  br i1 %or.cond, label %21, label %_ZNK11QModelIndex7isValidEv.exit.thread

21:                                               ; preds = %12
  store i32 -1, ptr %3, align 8
  %22 = getelementptr inbounds i8, ptr %3, i64 4
  store i32 -1, ptr %22, align 4
  %23 = getelementptr inbounds i8, ptr %3, i64 8
  call void @llvm.memset.p0.i64(ptr noundef nonnull align 8 dereferenceable(16) %23, i8 0, i64 16, i1 false)
  %24 = load ptr, ptr %11, align 8
  %25 = getelementptr inbounds i8, ptr %24, i64 264
  %26 = load ptr, ptr %25, align 8
  %27 = call noundef zeroext i1 %26(ptr noundef nonnull align 8 dereferenceable(96) %11, i32 noundef %13, i32 noundef 1, ptr noundef nonnull align 8 dereferenceable(24) %3)
  br i1 %27, label %_ZNK11QModelIndex7isValidEv.exit.thread, label %28

28:                                               ; preds = %21
  store i32 2, ptr %5, align 8
  %29 = getelementptr inbounds i8, ptr %5, i64 4
  %30 = getelementptr inbounds i8, ptr %5, i64 24
  call void @llvm.memset.p0.i64(ptr noundef nonnull align 4 dereferenceable(20) %29, i8 0, i64 20, i1 false)
  store ptr @.str.25, ptr %30, align 8
  call void @_ZNK14QMessageLogger5debugEv(ptr dead_on_unwind nonnull writable sret(%class.QDebug) align 8 %4, ptr noundef nonnull align 8 dereferenceable(32) %5)
  %31 = invoke noundef nonnull align 8 dereferenceable(8) ptr @_ZN6QDebuglsEPKc(ptr noundef nonnull align 8 dereferenceable(8) %4, ptr noundef nonnull @.str.9)
          to label %32 unwind label %33

32:                                               ; preds = %28
  call void @_ZN6QDebugD1Ev(ptr noundef nonnull align 8 dereferenceable(8) %4) #15
  br label %_ZNK11QModelIndex7isValidEv.exit.thread

33:                                               ; preds = %28
  %34 = landingpad { ptr, i32 }
          cleanup
  call void @_ZN6QDebugD1Ev(ptr noundef nonnull align 8 dereferenceable(8) %4) #15
  resume { ptr, i32 } %34

_ZNK11QModelIndex7isValidEv.exit.thread:          ; preds = %12, %21, %32, %1
  ret void
}